; Function Attrs: mustprogress uwtable
define dso_local noundef zeroext i1 @_ZN5ImGui8TreeNodeEPKcS1_z(ptr noundef %0, ptr noundef %1, ...) local_unnamed_addr #5 {
  %3 = alloca ptr, align 8
  %4 = alloca ptr, align 8
  %5 = alloca [1 x %struct.__va_list_tag], align 16
  call void @llvm.lifetime.start.p0(i64 24, ptr nonnull %5) #43
  call void @llvm.va_start.p0(ptr nonnull %5)
  %6 = load ptr, ptr @GImGui, align 8, !tbaa !4
  %7 = getelementptr inbounds nuw i8, ptr %6, i64 4928
  %8 = load ptr, ptr %7, align 8, !tbaa !9
  %9 = getelementptr inbounds nuw i8, ptr %8, i64 204
  store i8 1, ptr %9, align 4, !tbaa !130
  %10 = getelementptr inbounds nuw i8, ptr %8, i64 207
  %11 = load i8, ptr %10, align 1, !tbaa !151, !range !152, !noundef !153
  %12 = trunc nuw i8 %11 to i1
  br i1 %12, label %_ZN5ImGui11TreeNodeExVEPKciS1_P13__va_list_tag.exit, label %13

13:                                               ; preds = %2
  %14 = call noundef i32 @_ZN11ImGuiWindow5GetIDEPKcS1_(ptr noundef nonnull align 8 dereferenceable(1029) %8, ptr noundef %0, ptr noundef null)
  call void @llvm.lifetime.start.p0(i64 8, ptr nonnull %3) #43
  call void @llvm.lifetime.start.p0(i64 8, ptr nonnull %4) #43
  call void @_Z27ImFormatStringToTempBufferVPPKcS1_S0_P13__va_list_tag(ptr noundef nonnull %3, ptr noundef nonnull %4, ptr noundef %1, ptr noundef nonnull %5)
  %15 = load ptr, ptr %3, align 8, !tbaa !168
  %16 = load ptr, ptr %4, align 8, !tbaa !168
  %17 = call noundef zeroext i1 @_ZN5ImGui16TreeNodeBehaviorEjiPKcS1_(i32 noundef %14, i32 noundef 0, ptr noundef %15, ptr noundef %16)
  call void @llvm.lifetime.end.p0(i64 8, ptr nonnull %4) #43
  call void @llvm.lifetime.end.p0(i64 8, ptr nonnull %3) #43
  br label %_ZN5ImGui11TreeNodeExVEPKciS1_P13__va_list_tag.exit

_ZN5ImGui11TreeNodeExVEPKciS1_P13__va_list_tag.exit: ; preds = %2, %13
  %.0.i = phi i1 [ %17, %13 ], [ false, %2 ]
  call void @llvm.va_end.p0(ptr nonnull %5)
  call void @llvm.lifetime.end.p0(i64 24, ptr nonnull %5) #43
  ret i1 %.0.i
}